target datalayout = "e-m:e-p270:32:32-p271:32:32-p272:64:64-i64:64-i128:128-f80:128-n8:16:32:64-S128"
target triple = "x86_64-pc-linux-gnu"

%"class.zxing::IllegalArgumentErrorHandler" = type { %"class.zxing::ErrorHandler" }
%"class.zxing::ErrorHandler" = type { ptr, i32, i32, %"class.std::__cxx11::basic_string" }
%"class.std::__cxx11::basic_string" = type { %"struct.std::__cxx11::basic_string<char>::_Alloc_hider", i64, %union.anon }
%"struct.std::__cxx11::basic_string<char>::_Alloc_hider" = type { ptr }
%union.anon = type { i64, [8 x i8] }
%"class.zxing::GreyscaleRotatedLuminanceSource" = type <{ %"class.zxing::LuminanceSource.base", [4 x i8], %"class.zxing::ArrayRef", i32, i32, i32, [4 x i8] }>
%"class.zxing::LuminanceSource.base" = type { %"class.zxing::Counted.base", i32, i32 }
%"class.zxing::Counted.base" = type <{ ptr, i32 }>
%"class.zxing::ArrayRef" = type { %"class.zxing::Counted.base", ptr }
%"class.zxing::Counted" = type <{ ptr, i32, [4 x i8] }>

@.str = private unnamed_addr constant [47 x i8] c"Crop rectangle does not fit within image data.\00", align 1
@_ZTVN5zxing12ErrorHandlerE = external unnamed_addr constant { [10 x ptr] }, align 8
@_ZTVN5zxing8ArrayRefIcEE = linkonce_odr hidden unnamed_addr constant { [4 x ptr] } { [4 x ptr] [ptr null, ptr @_ZTIN5zxing8ArrayRefIcEE, ptr @_ZN5zxing8ArrayRefIcED2Ev, ptr @_ZN5zxing8ArrayRefIcED0Ev] }, comdat, align 8
@_ZTVN5zxing7CountedE = linkonce_odr hidden unnamed_addr constant { [4 x ptr] } { [4 x ptr] [ptr null, ptr @_ZTIN5zxing7CountedE, ptr @_ZN5zxing7CountedD2Ev, ptr @_ZN5zxing7CountedD0Ev] }, comdat, align 8

; Function Attrs: mustprogress nounwind uwtable
define linkonce_odr hidden noundef ptr @_ZN5zxing7Counted6retainEv(ptr noundef nonnull align 8 dereferenceable(12) %0) #2 comdat align 2 {
  %2 = alloca ptr, align 8
  store ptr %0, ptr %2, align 8
  %3 = load ptr, ptr %2, align 8
  %4 = getelementptr inbounds %"class.zxing::Counted", ptr %3, i32 0, i32 1
  %5 = load i32, ptr %4, align 8
  %6 = add i32 %5, 1
  store i32 %6, ptr %4, align 8
  ret ptr %3
}

; Function Attrs: mustprogress nounwind uwtable
define linkonce_odr hidden void @_ZN5zxing7Counted7releaseEv(ptr noundef nonnull align 8 dereferenceable(12) %0) #2 comdat align 2 {
  %2 = alloca ptr, align 8
  store ptr %0, ptr %2, align 8
  %3 = load ptr, ptr %2, align 8
  %4 = getelementptr inbounds %"class.zxing::Counted", ptr %3, i32 0, i32 1
  %5 = load i32, ptr %4, align 8
  %6 = add i32 %5, -1
  store i32 %6, ptr %4, align 8
  %7 = getelementptr inbounds %"class.zxing::Counted", ptr %3, i32 0, i32 1
  %8 = load i32, ptr %7, align 8
  %9 = icmp eq i32 %8, 0
  br i1 %9, label %10, label %18

10:                                               ; preds = %1
  %11 = getelementptr inbounds %"class.zxing::Counted", ptr %3, i32 0, i32 1
  store i32 -559026175, ptr %11, align 8
  %12 = icmp eq ptr %3, null
  br i1 %12, label %17, label %13

13:                                               ; preds = %10
  %14 = load ptr, ptr %3, align 8
  %15 = getelementptr inbounds ptr, ptr %14, i64 1
  %16 = load ptr, ptr %15, align 8
  call void %16(ptr noundef nonnull align 8 dereferenceable(12) %3) #9
  br label %17

17:                                               ; preds = %13, %10
  br label %18

18:                                               ; preds = %17, %1
  ret void
}

; Function Attrs: mustprogress nounwind uwtable
define linkonce_odr hidden void @_ZN5zxing12ErrorHandlerD2Ev(ptr noundef nonnull align 8 dereferenceable(48) %0) unnamed_addr #2 comdat align 2 {
  %2 = alloca ptr, align 8
  store ptr %0, ptr %2, align 8
  %3 = load ptr, ptr %2, align 8
  store ptr getelementptr inbounds inrange(-16, 64) ({ [10 x ptr] }, ptr @_ZTVN5zxing12ErrorHandlerE, i32 0, i32 0, i32 2), ptr %3, align 8
  %4 = getelementptr inbounds %"class.zxing::ErrorHandler", ptr %3, i32 0, i32 3
  call void @_ZNSt7__cxx1112basic_stringIcSt11char_traitsIcESaIcEED1Ev(ptr noundef nonnull align 8 dereferenceable(32) %4) #9
  ret void
}

; Function Attrs: mustprogress nounwind uwtable
define linkonce_odr hidden void @_ZN5zxing7CountedD2Ev(ptr noundef nonnull align 8 dereferenceable(12) %0) unnamed_addr #2 comdat align 2 {
  %2 = alloca ptr, align 8
  store ptr %0, ptr %2, align 8
  ret void
}

; Function Attrs: mustprogress uwtable
define linkonce_odr hidden void @_ZN5zxing8ArrayRefIcE5resetEPNS_5ArrayIcEE(ptr noundef nonnull align 8 dereferenceable(24) %0, ptr noundef %1) #0 comdat align 2 {
  %3 = alloca ptr, align 8
  %4 = alloca ptr, align 8
  store ptr %0, ptr %3, align 8
  store ptr %1, ptr %4, align 8
  %5 = load ptr, ptr %3, align 8
  %6 = load ptr, ptr %4, align 8
  %7 = icmp ne ptr %6, null
  br i1 %7, label %8, label %11

8:                                                ; preds = %2
  %9 = load ptr, ptr %4, align 8
  %10 = call noundef ptr @_ZN5zxing7Counted6retainEv(ptr noundef nonnull align 8 dereferenceable(12) %9)
  br label %11

11:                                               ; preds = %8, %2
  %12 = getelementptr inbounds %"class.zxing::ArrayRef", ptr %5, i32 0, i32 1
  %13 = load ptr, ptr %12, align 8
  %14 = icmp ne ptr %13, null
  br i1 %14, label %15, label %18

15:                                               ; preds = %11
  %16 = getelementptr inbounds %"class.zxing::ArrayRef", ptr %5, i32 0, i32 1
  %17 = load ptr, ptr %16, align 8
  call void @_ZN5zxing7Counted7releaseEv(ptr noundef nonnull align 8 dereferenceable(12) %17)
  br label %18

18:                                               ; preds = %15, %11
  %19 = load ptr, ptr %4, align 8
  %20 = getelementptr inbounds %"class.zxing::ArrayRef", ptr %5, i32 0, i32 1
  store ptr %19, ptr %20, align 8
  ret void
}

; Function Attrs: mustprogress nounwind uwtable
define linkonce_odr hidden void @_ZN5zxing7CountedC2Ev(ptr noundef nonnull align 8 dereferenceable(12) %0) unnamed_addr #2 comdat align 2 {
  %2 = alloca ptr, align 8
  store ptr %0, ptr %2, align 8
  %3 = load ptr, ptr %2, align 8
  store ptr getelementptr inbounds inrange(-16, 16) ({ [4 x ptr] }, ptr @_ZTVN5zxing7CountedE, i32 0, i32 0, i32 2), ptr %3, align 8
  %4 = getelementptr inbounds %"class.zxing::Counted", ptr %3, i32 0, i32 1
  store i32 0, ptr %4, align 8
  ret void
}

; Function Attrs: mustprogress nounwind uwtable
define linkonce_odr hidden void @_ZN5zxing8ArrayRefIcED2Ev(ptr noundef nonnull align 8 dereferenceable(24) %0) unnamed_addr #2 comdat align 2 {
  %2 = alloca ptr, align 8
  store ptr %0, ptr %2, align 8
  %3 = load ptr, ptr %2, align 8
  store ptr getelementptr inbounds inrange(-16, 16) ({ [4 x ptr] }, ptr @_ZTVN5zxing8ArrayRefIcEE, i32 0, i32 0, i32 2), ptr %3, align 8
  %4 = getelementptr inbounds %"class.zxing::ArrayRef", ptr %3, i32 0, i32 1
  %5 = load ptr, ptr %4, align 8
  %6 = icmp ne ptr %5, null
  br i1 %6, label %7, label %10

7:                                                ; preds = %1
  %8 = getelementptr inbounds %"class.zxing::ArrayRef", ptr %3, i32 0, i32 1
  %9 = load ptr, ptr %8, align 8
  call void @_ZN5zxing7Counted7releaseEv(ptr noundef nonnull align 8 dereferenceable(12) %9)
  br label %10

10:                                               ; preds = %7, %1
  %11 = getelementptr inbounds %"class.zxing::ArrayRef", ptr %3, i32 0, i32 1
  store ptr null, ptr %11, align 8
  call void @_ZN5zxing7CountedD2Ev(ptr noundef nonnull align 8 dereferenceable(12) %3) #9
  ret void
}

; Function Attrs: mustprogress nounwind uwtable
define linkonce_odr hidden void @_ZN5zxing27IllegalArgumentErrorHandlerD2Ev(ptr noundef nonnull align 8 dereferenceable(48) %0) unnamed_addr #2 comdat align 2 {
  %2 = alloca ptr, align 8
  store ptr %0, ptr %2, align 8
  %3 = load ptr, ptr %2, align 8
  call void @_ZN5zxing12ErrorHandlerD2Ev(ptr noundef nonnull align 8 dereferenceable(48) %3) #9
  ret void
}

; Function Attrs: mustprogress uwtable
define linkonce_odr hidden void @_ZN5zxing27IllegalArgumentErrorHandlerC2EPKc(ptr noundef nonnull align 8 dereferenceable(48) %0, ptr noundef %1) unnamed_addr #0 comdat align 2 personality ptr @__gxx_personality_v0 {
  %3 = alloca ptr, align 8
  %4 = alloca ptr, align 8
  %5 = alloca ptr, align 8
  %6 = alloca i32, align 4
  store ptr %0, ptr %3, align 8
  store ptr %1, ptr %4, align 8
  %7 = load ptr, ptr %3, align 8
  %8 = load ptr, ptr %4, align 8
  call void @_ZN5zxing12ErrorHandlerC2EPKc(ptr noundef nonnull align 8 dereferenceable(48) %7, ptr noundef %8)
  store ptr getelementptr inbounds inrange(-16, 64) ({ [10 x ptr] }, ptr @_ZTVN5zxing27IllegalArgumentErrorHandlerE, i32 0, i32 0, i32 2), ptr %7, align 8
  %9 = load ptr, ptr %7, align 8
  %10 = getelementptr inbounds ptr, ptr %9, i64 5
  %11 = load ptr, ptr %10, align 8
  invoke void %11(ptr noundef nonnull align 8 dereferenceable(48) %7)
          to label %12 unwind label %13

12:                                               ; preds = %2
  ret void

13:                                               ; preds = %2
  %14 = landingpad { ptr, i32 }
          cleanup
  %15 = extractvalue { ptr, i32 } %14, 0
  store ptr %15, ptr %5, align 8
  %16 = extractvalue { ptr, i32 } %14, 1
  store i32 %16, ptr %6, align 4
  call void @_ZN5zxing12ErrorHandlerD2Ev(ptr noundef nonnull align 8 dereferenceable(48) %7) #9
  br label %17

17:                                               ; preds = %13
  %18 = load ptr, ptr %5, align 8
  %19 = load i32, ptr %6, align 4
  %20 = insertvalue { ptr, i32 } poison, ptr %18, 0
  %21 = insertvalue { ptr, i32 } %20, i32 %19, 1
  resume { ptr, i32 } %21
}

; Function Attrs: mustprogress uwtable
define linkonce_odr hidden void @_ZN5zxing8ArrayRefIcEC2ERKS1_(ptr noundef nonnull align 8 dereferenceable(24) %0, ptr noundef nonnull align 8 dereferenceable(24) %1) unnamed_addr #0 comdat align 2 personality ptr @__gxx_personality_v0 {
  %3 = alloca ptr, align 8
  %4 = alloca ptr, align 8
  %5 = alloca ptr, align 8
  %6 = alloca i32, align 4
  store ptr %0, ptr %3, align 8
  store ptr %1, ptr %4, align 8
  %7 = load ptr, ptr %3, align 8
  call void @_ZN5zxing7CountedC2Ev(ptr noundef nonnull align 8 dereferenceable(12) %7)
  store ptr getelementptr inbounds inrange(-16, 16) ({ [4 x ptr] }, ptr @_ZTVN5zxing8ArrayRefIcEE, i32 0, i32 0, i32 2), ptr %7, align 8
  %8 = getelementptr inbounds %"class.zxing::ArrayRef", ptr %7, i32 0, i32 1
  store ptr null, ptr %8, align 8
  %9 = load ptr, ptr %4, align 8
  %10 = getelementptr inbounds %"class.zxing::ArrayRef", ptr %9, i32 0, i32 1
  %11 = load ptr, ptr %10, align 8
  invoke void @_ZN5zxing8ArrayRefIcE5resetEPNS_5ArrayIcEE(ptr noundef nonnull align 8 dereferenceable(24) %7, ptr noundef %11)
          to label %12 unwind label %13

12:                                               ; preds = %2
  ret void

13:                                               ; preds = %2
  %14 = landingpad { ptr, i32 }
          cleanup
  %15 = extractvalue { ptr, i32 } %14, 0
  store ptr %15, ptr %5, align 8
  %16 = extractvalue { ptr, i32 } %14, 1
  store i32 %16, ptr %6, align 4
  call void @_ZN5zxing7CountedD2Ev(ptr noundef nonnull align 8 dereferenceable(12) %7) #9
  br label %17

17:                                               ; preds = %13
  %18 = load ptr, ptr %5, align 8
  %19 = load i32, ptr %6, align 4
  %20 = insertvalue { ptr, i32 } poison, ptr %18, 0
  %21 = insertvalue { ptr, i32 } %20, i32 %19, 1
  resume { ptr, i32 } %21
}

; Function Attrs: mustprogress uwtable
define hidden void @_ZN5zxing31GreyscaleRotatedLuminanceSourceC2ENS_8ArrayRefIcEEiiiiiiRNS_12ErrorHandlerE(ptr noundef nonnull align 8 dereferenceable(60) %0, ptr noundef %1, i32 noundef %2, i32 noundef %3, i32 noundef %4, i32 noundef %5, i32 noundef %6, i32 noundef %7, ptr noundef nonnull align 8 dereferenceable(48) %8) unnamed_addr #0 align 2 personality ptr @__gxx_personality_v0 {
  %10 = alloca ptr, align 8
  %11 = alloca ptr, align 8
  %12 = alloca i32, align 4
  %13 = alloca i32, align 4
  %14 = alloca i32, align 4
  %15 = alloca i32, align 4
  %16 = alloca i32, align 4
  %17 = alloca i32, align 4
  %18 = alloca ptr, align 8
  %19 = alloca ptr, align 8
  %20 = alloca i32, align 4
  %21 = alloca %"class.zxing::IllegalArgumentErrorHandler", align 8
  store ptr %0, ptr %10, align 8
  store ptr %1, ptr %11, align 8
  store i32 %2, ptr %12, align 4
  store i32 %3, ptr %13, align 4
  store i32 %4, ptr %14, align 4
  store i32 %5, ptr %15, align 4
  store i32 %6, ptr %16, align 4
  store i32 %7, ptr %17, align 4
  store ptr %8, ptr %18, align 8
  %22 = load ptr, ptr %10, align 8
  %23 = load i32, ptr %16, align 4
  %24 = load i32, ptr %17, align 4
  call void @_ZN5zxing15LuminanceSourceC2Eii(ptr noundef nonnull align 8 dereferenceable(20) %22, i32 noundef %23, i32 noundef %24)
  store ptr getelementptr inbounds inrange(-16, 72) ({ [11 x ptr] }, ptr @_ZTVN5zxing31GreyscaleRotatedLuminanceSourceE, i32 0, i32 0, i32 2), ptr %22, align 8
  %25 = getelementptr inbounds %"class.zxing::GreyscaleRotatedLuminanceSource", ptr %22, i32 0, i32 2
  invoke void @_ZN5zxing8ArrayRefIcEC2ERKS1_(ptr noundef nonnull align 8 dereferenceable(24) %25, ptr noundef nonnull align 8 dereferenceable(24) %1)
          to label %26 unwind label %49

26:                                               ; preds = %9
  %27 = getelementptr inbounds %"class.zxing::GreyscaleRotatedLuminanceSource", ptr %22, i32 0, i32 3
  %28 = load i32, ptr %12, align 4
  store i32 %28, ptr %27, align 8
  %29 = getelementptr inbounds %"class.zxing::GreyscaleRotatedLuminanceSource", ptr %22, i32 0, i32 4
  %30 = load i32, ptr %14, align 4
  store i32 %30, ptr %29, align 4
  %31 = getelementptr inbounds %"class.zxing::GreyscaleRotatedLuminanceSource", ptr %22, i32 0, i32 5
  %32 = load i32, ptr %15, align 4
  store i32 %32, ptr %31, align 8
  %33 = load i32, ptr %14, align 4
  %34 = load i32, ptr %16, align 4
  %35 = add nsw i32 %33, %34
  %36 = load i32, ptr %13, align 4
  %37 = icmp sgt i32 %35, %36
  br i1 %37, label %44, label %38

38:                                               ; preds = %26
  %39 = load i32, ptr %15, align 4
  %40 = load i32, ptr %17, align 4
  %41 = add nsw i32 %39, %40
  %42 = load i32, ptr %12, align 4
  %43 = icmp sgt i32 %41, %42
  br i1 %43, label %44, label %61

44:                                               ; preds = %38, %26
  invoke void @_ZN5zxing27IllegalArgumentErrorHandlerC2EPKc(ptr noundef nonnull align 8 dereferenceable(48) %21, ptr noundef @.str)
          to label %45 unwind label %53

45:                                               ; preds = %44
  %46 = load ptr, ptr %18, align 8
  %47 = invoke noundef nonnull align 8 dereferenceable(48) ptr @_ZN5zxing12ErrorHandleraSERKS0_(ptr noundef nonnull align 8 dereferenceable(48) %46, ptr noundef nonnull align 8 dereferenceable(48) %21)
          to label %48 unwind label %57

48:                                               ; preds = %45
  call void @_ZN5zxing27IllegalArgumentErrorHandlerD2Ev(ptr noundef nonnull align 8 dereferenceable(48) %21) #9
  br label %61

49:                                               ; preds = %9
  %50 = landingpad { ptr, i32 }
          cleanup
  %51 = extractvalue { ptr, i32 } %50, 0
  store ptr %51, ptr %19, align 8
  %52 = extractvalue { ptr, i32 } %50, 1
  store i32 %52, ptr %20, align 4
  br label %63

53:                                               ; preds = %44
  %54 = landingpad { ptr, i32 }
          cleanup
  %55 = extractvalue { ptr, i32 } %54, 0
  store ptr %55, ptr %19, align 8
  %56 = extractvalue { ptr, i32 } %54, 1
  store i32 %56, ptr %20, align 4
  br label %62

57:                                               ; preds = %45
  %58 = landingpad { ptr, i32 }
          cleanup
  %59 = extractvalue { ptr, i32 } %58, 0
  store ptr %59, ptr %19, align 8
  %60 = extractvalue { ptr, i32 } %58, 1
  store i32 %60, ptr %20, align 4
  call void @_ZN5zxing27IllegalArgumentErrorHandlerD2Ev(ptr noundef nonnull align 8 dereferenceable(48) %21) #9
  br label %62

61:                                               ; preds = %48, %38
  ret void

62:                                               ; preds = %57, %53
  call void @_ZN5zxing8ArrayRefIcED2Ev(ptr noundef nonnull align 8 dereferenceable(24) %25) #9
  br label %63

63:                                               ; preds = %62, %49
  call void @_ZN5zxing15LuminanceSourceD2Ev(ptr noundef nonnull align 8 dereferenceable(20) %22) #9
  br label %64

64:                                               ; preds = %63
  %65 = load ptr, ptr %19, align 8
  %66 = load i32, ptr %20, align 4
  %67 = insertvalue { ptr, i32 } poison, ptr %65, 0
  %68 = insertvalue { ptr, i32 } %67, i32 %66, 1
  resume { ptr, i32 } %68
}