; Function Attrs: mustprogress uwtable
define hidden void @_ZN5zxing31GreyscaleRotatedLuminanceSourceC2ENS_8ArrayRefIcEEiiiiiiRNS_12ErrorHandlerE(ptr noundef nonnull align 8 dereferenceable(60) %0, ptr noundef readonly captures(none) %1, i32 noundef %2, i32 noundef %3, i32 noundef %4, i32 noundef %5, i32 noundef %6, i32 noundef %7, ptr noundef nonnull align 8 dereferenceable(48) %8) unnamed_addr #0 align 2 personality ptr @__gxx_personality_v0 {
  %10 = alloca %"class.zxing::IllegalArgumentErrorHandler", align 8
  tail call void @_ZN5zxing15LuminanceSourceC2Eii(ptr noundef nonnull align 8 dereferenceable(20) %0, i32 noundef %6, i32 noundef %7)
  store ptr getelementptr inbounds nuw inrange(-16, 72) (i8, ptr @_ZTVN5zxing31GreyscaleRotatedLuminanceSourceE, i64 16), ptr %0, align 8
  %11 = getelementptr inbounds nuw i8, ptr %0, i64 24
  %12 = getelementptr inbounds nuw i8, ptr %0, i64 32
  store i32 0, ptr %12, align 8
  store ptr getelementptr inbounds nuw inrange(-16, 16) (i8, ptr @_ZTVN5zxing8ArrayRefIcEE, i64 16), ptr %11, align 8
  %13 = getelementptr inbounds nuw i8, ptr %0, i64 40
  store ptr null, ptr %13, align 8
  %14 = getelementptr inbounds nuw i8, ptr %1, i64 16
  %15 = load ptr, ptr %14, align 8
  %.not.i.i = icmp eq ptr %15, null
  br i1 %.not.i.i, label %29, label %16

16:                                               ; preds = %9
  %17 = getelementptr inbounds nuw i8, ptr %15, i64 8
  %18 = load i32, ptr %17, align 8
  %19 = add i32 %18, 1
  store i32 %19, ptr %17, align 8
  %.pr.i = load ptr, ptr %13, align 8
  %.not5.i.i = icmp eq ptr %.pr.i, null
  br i1 %.not5.i.i, label %29, label %20

20:                                               ; preds = %16
  %21 = getelementptr inbounds nuw i8, ptr %.pr.i, i64 8
  %22 = load i32, ptr %21, align 8
  %23 = add i32 %22, -1
  store i32 %23, ptr %21, align 8
  %24 = icmp eq i32 %23, 0
  br i1 %24, label %25, label %29

25:                                               ; preds = %20
  store i32 -559026175, ptr %21, align 8
  %26 = load ptr, ptr %.pr.i, align 8
  %27 = getelementptr inbounds nuw i8, ptr %26, i64 8
  %28 = load ptr, ptr %27, align 8
  tail call void %28(ptr noundef nonnull align 8 dereferenceable(12) %.pr.i) #9
  br label %29

29:                                               ; preds = %25, %20, %16, %9
  store ptr %15, ptr %13, align 8
  %30 = getelementptr inbounds nuw i8, ptr %0, i64 48
  store i32 %2, ptr %30, align 8
  %31 = getelementptr inbounds nuw i8, ptr %0, i64 52
  store i32 %4, ptr %31, align 4
  %32 = getelementptr inbounds nuw i8, ptr %0, i64 56
  store i32 %5, ptr %32, align 8
  %33 = add nsw i32 %6, %4
  %34 = icmp sgt i32 %33, %3
  %35 = add nsw i32 %7, %5
  %36 = icmp sgt i32 %35, %2
  %or.cond = select i1 %34, i1 true, i1 %36
  br i1 %or.cond, label %37, label %48

37:                                               ; preds = %29
  invoke void @_ZN5zxing12ErrorHandlerC2EPKc(ptr noundef nonnull align 8 dereferenceable(48) %10, ptr noundef nonnull @.str)
          to label %38 unwind label %43

38:                                               ; preds = %37
  store ptr getelementptr inbounds nuw inrange(-16, 64) (i8, ptr @_ZTVN5zxing27IllegalArgumentErrorHandlerE, i64 16), ptr %10, align 8
  %39 = getelementptr inbounds nuw i8, ptr %10, i64 8
  store i32 4, ptr %39, align 8
  %40 = invoke noundef nonnull align 8 dereferenceable(48) ptr @_ZN5zxing12ErrorHandleraSERKS0_(ptr noundef nonnull align 8 dereferenceable(48) %8, ptr noundef nonnull align 8 dereferenceable(48) %10)
          to label %41 unwind label %45

41:                                               ; preds = %38
  store ptr getelementptr inbounds nuw inrange(-16, 64) (i8, ptr @_ZTVN5zxing12ErrorHandlerE, i64 16), ptr %10, align 8
  %42 = getelementptr inbounds nuw i8, ptr %10, i64 16
  call void @_ZNSt7__cxx1112basic_stringIcSt11char_traitsIcESaIcEED1Ev(ptr noundef nonnull align 8 dereferenceable(32) %42) #9
  br label %48

43:                                               ; preds = %37
  %44 = landingpad { ptr, i32 }
          cleanup
  br label %49

45:                                               ; preds = %38
  %46 = landingpad { ptr, i32 }
          cleanup
  store ptr getelementptr inbounds nuw inrange(-16, 64) (i8, ptr @_ZTVN5zxing12ErrorHandlerE, i64 16), ptr %10, align 8
  %47 = getelementptr inbounds nuw i8, ptr %10, i64 16
  call void @_ZNSt7__cxx1112basic_stringIcSt11char_traitsIcESaIcEED1Ev(ptr noundef nonnull align 8 dereferenceable(32) %47) #9
  br label %49

48:                                               ; preds = %29, %41
  ret void

49:                                               ; preds = %45, %43
  %.pn = phi { ptr, i32 } [ %46, %45 ], [ %44, %43 ]
  store ptr getelementptr inbounds nuw inrange(-16, 16) (i8, ptr @_ZTVN5zxing8ArrayRefIcEE, i64 16), ptr %11, align 8
  %50 = load ptr, ptr %13, align 8
  %.not.i = icmp eq ptr %50, null
  br i1 %.not.i, label %_ZN5zxing8ArrayRefIcED2Ev.exit, label %51

51:                                               ; preds = %49
  %52 = getelementptr inbounds nuw i8, ptr %50, i64 8
  %53 = load i32, ptr %52, align 8
  %54 = add i32 %53, -1
  store i32 %54, ptr %52, align 8
  %55 = icmp eq i32 %54, 0
  br i1 %55, label %56, label %_ZN5zxing8ArrayRefIcED2Ev.exit

56:                                               ; preds = %51
  store i32 -559026175, ptr %52, align 8
  %57 = load ptr, ptr %50, align 8
  %58 = getelementptr inbounds nuw i8, ptr %57, i64 8
  %59 = load ptr, ptr %58, align 8
  call void %59(ptr noundef nonnull align 8 dereferenceable(12) %50) #9
  br label %_ZN5zxing8ArrayRefIcED2Ev.exit

_ZN5zxing8ArrayRefIcED2Ev.exit:                   ; preds = %49, %51, %56
  store ptr null, ptr %13, align 8
  call void @_ZN5zxing15LuminanceSourceD2Ev(ptr noundef nonnull align 8 dereferenceable(20) %0) #9
  resume { ptr, i32 } %.pn
}